target datalayout = "e-m:e-p270:32:32-p271:32:32-p272:64:64-i64:64-i128:128-f80:128-n8:16:32:64-S128"
target triple = "x86_64-pc-linux-gnu"

%struct.expert_field = type { i32, i32 }

@hf_pn_io_SFIOCRProperties = internal global i32 0, align 4
@hf_pn_io_DistributedWatchDogFactor = internal global i32 0, align 4
@hf_pn_io_RestartFactorForDistributedWD = internal global i32 0, align 4
@hf_pn_io_SFIOCRProperties_DFPmode = internal global i32 0, align 4
@hf_pn_io_SFIOCRProperties_reserved_1 = internal global i32 0, align 4
@hf_pn_io_SFIOCRProperties_reserved_2 = internal global i32 0, align 4
@hf_pn_io_SFIOCRProperties_DFPType = internal global i32 0, align 4
@hf_pn_io_SFIOCRProperties_DFPRedundantPathLayout = internal global i32 0, align 4
@hf_pn_io_SFIOCRProperties_SFCRC16 = internal global i32 0, align 4
@hf_pn_io_frame_id = internal global i32 0, align 4
@hf_pn_io_subframe_data = internal global i32 0, align 4
@hf_pn_io_subframe_reserved2 = internal global i32 0, align 4
@hf_pn_io_subframe_data_length = internal global i32 0, align 4
@hf_pn_io_subframe_reserved1 = internal global i32 0, align 4
@hf_pn_io_subframe_data_position = internal global i32 0, align 4
@ett_pn_io_subframe_data = internal global i32 0, align 4
@ett_pn_io_SFIOCRProperties = internal global i32 0, align 4
@ei_pn_io_block_version = internal global %struct.expert_field zeroinitializer, align 4
@.str.1317 = private unnamed_addr constant [41 x i8] c"Block version %u.%u not implemented yet!\00", align 1
@.str.1572 = private unnamed_addr constant [27 x i8] c", Length:%u (0x%x), Pos:%u\00", align 1

; Function Attrs: nounwind uwtable
define internal i32 @dissect_PDSubFrameBlock_block(ptr noundef %0, i32 noundef %1, ptr noundef %2, ptr noundef %3, ptr noundef %4, ptr noundef %5, i8 noundef zeroext %6, i8 noundef zeroext %7, i16 noundef zeroext %8) #0 {
  %10 = alloca i32, align 4
  %11 = alloca ptr, align 8
  %12 = alloca i32, align 4
  %13 = alloca ptr, align 8
  %14 = alloca ptr, align 8
  %15 = alloca ptr, align 8
  %16 = alloca ptr, align 8
  %17 = alloca i8, align 1
  %18 = alloca i8, align 1
  %19 = alloca i16, align 2
  %20 = alloca i32, align 4
  %21 = alloca i32, align 4
  %22 = alloca i16, align 2
  %23 = alloca ptr, align 8
  %24 = alloca ptr, align 8
  %25 = alloca i16, align 2
  %26 = alloca i8, align 1
  %27 = alloca i8, align 1
  store ptr %0, ptr %11, align 8
  store i32 %1, ptr %12, align 4
  store ptr %2, ptr %13, align 8
  store ptr %3, ptr %14, align 8
  store ptr %4, ptr %15, align 8
  store ptr %5, ptr %16, align 8
  store i8 %6, ptr %17, align 1
  store i8 %7, ptr %18, align 1
  store i16 %8, ptr %19, align 2
  %28 = load i8, ptr %17, align 1
  %29 = zext i8 %28 to i32
  %30 = icmp ne i32 %29, 1
  br i1 %30, label %35, label %31

31:                                               ; preds = %9
  %32 = load i8, ptr %18, align 1
  %33 = zext i8 %32 to i32
  %34 = icmp ne i32 %33, 0
  br i1 %34, label %35, label %44

35:                                               ; preds = %31, %9
  %36 = load ptr, ptr %13, align 8
  %37 = load ptr, ptr %15, align 8
  %38 = load i8, ptr %17, align 1
  %39 = zext i8 %38 to i32
  %40 = load i8, ptr %18, align 1
  %41 = zext i8 %40 to i32
  %42 = call ptr (ptr, ptr, ptr, ptr, ...) @expert_add_info_format(ptr noundef %36, ptr noundef %37, ptr noundef @ei_pn_io_block_version, ptr noundef @.str.1317, i32 noundef %39, i32 noundef %41)
  %43 = load i32, ptr %12, align 4
  store i32 %43, ptr %10, align 4
  br label %182

44:                                               ; preds = %31
  %45 = load ptr, ptr %11, align 8
  %46 = load i32, ptr %12, align 4
  %47 = load ptr, ptr %13, align 8
  %48 = load ptr, ptr %14, align 8
  %49 = load ptr, ptr %16, align 8
  %50 = load i32, ptr @hf_pn_io_frame_id, align 4
  %51 = call i32 @dissect_dcerpc_uint16(ptr noundef %45, i32 noundef %46, ptr noundef %47, ptr noundef %48, ptr noundef %49, i32 noundef %50, ptr noundef %22)
  store i32 %51, ptr %12, align 4
  %52 = load ptr, ptr %14, align 8
  %53 = load i32, ptr @hf_pn_io_SFIOCRProperties, align 4
  %54 = load ptr, ptr %11, align 8
  %55 = load i32, ptr %12, align 4
  %56 = call ptr @proto_tree_add_item(ptr noundef %52, i32 noundef %53, ptr noundef %54, i32 noundef %55, i32 noundef 4, i32 noundef 0)
  store ptr %56, ptr %23, align 8
  %57 = load ptr, ptr %23, align 8
  %58 = load i32, ptr @ett_pn_io_SFIOCRProperties, align 4
  %59 = call ptr @proto_item_add_subtree(ptr noundef %57, i32 noundef %58)
  store ptr %59, ptr %24, align 8
  %60 = load ptr, ptr %11, align 8
  %61 = load i32, ptr %12, align 4
  %62 = load ptr, ptr %13, align 8
  %63 = load ptr, ptr %24, align 8
  %64 = load ptr, ptr %16, align 8
  %65 = load i32, ptr @hf_pn_io_SFIOCRProperties_SFCRC16, align 4
  %66 = call i32 @dissect_dcerpc_uint32(ptr noundef %60, i32 noundef %61, ptr noundef %62, ptr noundef %63, ptr noundef %64, i32 noundef %65, ptr noundef %20)
  %67 = load ptr, ptr %11, align 8
  %68 = load i32, ptr %12, align 4
  %69 = load ptr, ptr %13, align 8
  %70 = load ptr, ptr %24, align 8
  %71 = load ptr, ptr %16, align 8
  %72 = load i32, ptr @hf_pn_io_SFIOCRProperties_DFPRedundantPathLayout, align 4
  %73 = call i32 @dissect_dcerpc_uint32(ptr noundef %67, i32 noundef %68, ptr noundef %69, ptr noundef %70, ptr noundef %71, i32 noundef %72, ptr noundef %20)
  %74 = load ptr, ptr %11, align 8
  %75 = load i32, ptr %12, align 4
  %76 = load ptr, ptr %13, align 8
  %77 = load ptr, ptr %24, align 8
  %78 = load ptr, ptr %16, align 8
  %79 = load i32, ptr @hf_pn_io_SFIOCRProperties_DFPType, align 4
  %80 = call i32 @dissect_dcerpc_uint32(ptr noundef %74, i32 noundef %75, ptr noundef %76, ptr noundef %77, ptr noundef %78, i32 noundef %79, ptr noundef %20)
  %81 = load ptr, ptr %11, align 8
  %82 = load i32, ptr %12, align 4
  %83 = load ptr, ptr %13, align 8
  %84 = load ptr, ptr %24, align 8
  %85 = load ptr, ptr %16, align 8
  %86 = load i32, ptr @hf_pn_io_SFIOCRProperties_reserved_2, align 4
  %87 = call i32 @dissect_dcerpc_uint32(ptr noundef %81, i32 noundef %82, ptr noundef %83, ptr noundef %84, ptr noundef %85, i32 noundef %86, ptr noundef %20)
  %88 = load ptr, ptr %11, align 8
  %89 = load i32, ptr %12, align 4
  %90 = load ptr, ptr %13, align 8
  %91 = load ptr, ptr %24, align 8
  %92 = load ptr, ptr %16, align 8
  %93 = load i32, ptr @hf_pn_io_SFIOCRProperties_reserved_1, align 4
  %94 = call i32 @dissect_dcerpc_uint32(ptr noundef %88, i32 noundef %89, ptr noundef %90, ptr noundef %91, ptr noundef %92, i32 noundef %93, ptr noundef %20)
  %95 = load ptr, ptr %11, align 8
  %96 = load i32, ptr %12, align 4
  %97 = load ptr, ptr %13, align 8
  %98 = load ptr, ptr %24, align 8
  %99 = load ptr, ptr %16, align 8
  %100 = load i32, ptr @hf_pn_io_SFIOCRProperties_DFPmode, align 4
  %101 = call i32 @dissect_dcerpc_uint32(ptr noundef %95, i32 noundef %96, ptr noundef %97, ptr noundef %98, ptr noundef %99, i32 noundef %100, ptr noundef %20)
  %102 = load ptr, ptr %11, align 8
  %103 = load i32, ptr %12, align 4
  %104 = load ptr, ptr %13, align 8
  %105 = load ptr, ptr %24, align 8
  %106 = load ptr, ptr %16, align 8
  %107 = load i32, ptr @hf_pn_io_RestartFactorForDistributedWD, align 4
  %108 = call i32 @dissect_dcerpc_uint32(ptr noundef %102, i32 noundef %103, ptr noundef %104, ptr noundef %105, ptr noundef %106, i32 noundef %107, ptr noundef %20)
  %109 = load ptr, ptr %11, align 8
  %110 = load i32, ptr %12, align 4
  %111 = load ptr, ptr %13, align 8
  %112 = load ptr, ptr %24, align 8
  %113 = load ptr, ptr %16, align 8
  %114 = load i32, ptr @hf_pn_io_DistributedWatchDogFactor, align 4
  %115 = call i32 @dissect_dcerpc_uint32(ptr noundef %109, i32 noundef %110, ptr noundef %111, ptr noundef %112, ptr noundef %113, i32 noundef %114, ptr noundef %20)
  store i32 %115, ptr %12, align 4
  %116 = load i16, ptr %19, align 2
  %117 = zext i16 %116 to i32
  %118 = sub i32 %117, 4
  %119 = sub i32 %118, 2
  %120 = trunc i32 %119 to i16
  store i16 %120, ptr %25, align 2
  br label %121

121:                                              ; preds = %125, %44
  %122 = load i16, ptr %25, align 2
  %123 = zext i16 %122 to i32
  %124 = icmp sge i32 %123, 4
  br i1 %124, label %125, label %180

125:                                              ; preds = %121
  %126 = load ptr, ptr %14, align 8
  %127 = load i32, ptr @hf_pn_io_subframe_data, align 4
  %128 = load ptr, ptr %11, align 8
  %129 = load i32, ptr %12, align 4
  %130 = call ptr @proto_tree_add_item(ptr noundef %126, i32 noundef %127, ptr noundef %128, i32 noundef %129, i32 noundef 4, i32 noundef 0)
  store ptr %130, ptr %23, align 8
  %131 = load ptr, ptr %23, align 8
  %132 = load i32, ptr @ett_pn_io_subframe_data, align 4
  %133 = call ptr @proto_item_add_subtree(ptr noundef %131, i32 noundef %132)
  store ptr %133, ptr %24, align 8
  %134 = load ptr, ptr %11, align 8
  %135 = load i32, ptr %12, align 4
  %136 = load ptr, ptr %13, align 8
  %137 = load ptr, ptr %24, align 8
  %138 = load ptr, ptr %16, align 8
  %139 = load i32, ptr @hf_pn_io_subframe_data_position, align 4
  %140 = call i32 @dissect_dcerpc_uint32(ptr noundef %134, i32 noundef %135, ptr noundef %136, ptr noundef %137, ptr noundef %138, i32 noundef %139, ptr noundef %21)
  %141 = load ptr, ptr %11, align 8
  %142 = load i32, ptr %12, align 4
  %143 = load ptr, ptr %13, align 8
  %144 = load ptr, ptr %24, align 8
  %145 = load ptr, ptr %16, align 8
  %146 = load i32, ptr @hf_pn_io_subframe_reserved1, align 4
  %147 = call i32 @dissect_dcerpc_uint32(ptr noundef %141, i32 noundef %142, ptr noundef %143, ptr noundef %144, ptr noundef %145, i32 noundef %146, ptr noundef %21)
  %148 = load ptr, ptr %11, align 8
  %149 = load i32, ptr %12, align 4
  %150 = load ptr, ptr %13, align 8
  %151 = load ptr, ptr %24, align 8
  %152 = load ptr, ptr %16, align 8
  %153 = load i32, ptr @hf_pn_io_subframe_data_length, align 4
  %154 = call i32 @dissect_dcerpc_uint32(ptr noundef %148, i32 noundef %149, ptr noundef %150, ptr noundef %151, ptr noundef %152, i32 noundef %153, ptr noundef %21)
  %155 = load ptr, ptr %11, align 8
  %156 = load i32, ptr %12, align 4
  %157 = load ptr, ptr %13, align 8
  %158 = load ptr, ptr %24, align 8
  %159 = load ptr, ptr %16, align 8
  %160 = load i32, ptr @hf_pn_io_subframe_reserved2, align 4
  %161 = call i32 @dissect_dcerpc_uint32(ptr noundef %155, i32 noundef %156, ptr noundef %157, ptr noundef %158, ptr noundef %159, i32 noundef %160, ptr noundef %21)
  store i32 %161, ptr %12, align 4
  %162 = load i32, ptr %21, align 4
  %163 = and i32 %162, 127
  %164 = trunc i32 %163 to i8
  store i8 %164, ptr %26, align 1
  %165 = load i32, ptr %21, align 4
  %166 = lshr i32 %165, 8
  %167 = and i32 %166, 255
  %168 = trunc i32 %167 to i8
  store i8 %168, ptr %27, align 1
  %169 = load ptr, ptr %23, align 8
  %170 = load i8, ptr %27, align 1
  %171 = zext i8 %170 to i32
  %172 = load i8, ptr %27, align 1
  %173 = zext i8 %172 to i32
  %174 = load i8, ptr %26, align 1
  %175 = zext i8 %174 to i32
  call void (ptr, ptr, ...) @proto_item_append_text(ptr noundef %169, ptr noundef @.str.1572, i32 noundef %171, i32 noundef %173, i32 noundef %175)
  %176 = load i16, ptr %25, align 2
  %177 = zext i16 %176 to i32
  %178 = sub i32 %177, 4
  %179 = trunc i32 %178 to i16
  store i16 %179, ptr %25, align 2
  br label %121, !llvm.loop !58

180:                                              ; preds = %121
  %181 = load i32, ptr %12, align 4
  store i32 %181, ptr %10, align 4
  br label %182

182:                                              ; preds = %180, %35
  %183 = load i32, ptr %10, align 4
  ret i32 %183
}