; Function Attrs: nounwind uwtable
define internal fastcc void @dissect_PDSubFrameBlock_block(ptr noundef %0, i32 noundef %1, ptr noundef %2, ptr noundef %3, ptr noundef %4, ptr noundef %5, i8 noundef zeroext %6, i8 noundef zeroext %7, i16 noundef zeroext %8) unnamed_addr #0 {
  %10 = alloca i32, align 4
  %11 = alloca i32, align 4
  %12 = alloca i16, align 2
  %13 = icmp ne i8 %6, 1
  %14 = icmp ne i8 %7, 0
  %or.cond = or i1 %13, %14
  br i1 %or.cond, label %15, label %19

15:                                               ; preds = %9
  %16 = zext i8 %7 to i32
  %17 = zext i8 %6 to i32
  %18 = tail call ptr (ptr, ptr, ptr, ptr, ...) @expert_add_info_format(ptr noundef %2, ptr noundef %4, ptr noundef nonnull @ei_pn_io_block_version, ptr noundef nonnull @.str.1317, i32 noundef %17, i32 noundef %16) #11
  br label %.loopexit

19:                                               ; preds = %9
  %20 = load i32, ptr @hf_pn_io_frame_id, align 4
  %21 = call i32 @dissect_dcerpc_uint16(ptr noundef %0, i32 noundef %1, ptr noundef %2, ptr noundef %3, ptr noundef %5, i32 noundef %20, ptr noundef nonnull %12) #11
  %22 = load i32, ptr @hf_pn_io_SFIOCRProperties, align 4
  %23 = call ptr @proto_tree_add_item(ptr noundef %3, i32 noundef %22, ptr noundef %0, i32 noundef %21, i32 noundef 4, i32 noundef 0) #11
  %24 = load i32, ptr @ett_pn_io_SFIOCRProperties, align 4
  %25 = call ptr @proto_item_add_subtree(ptr noundef %23, i32 noundef %24) #11
  %26 = load i32, ptr @hf_pn_io_SFIOCRProperties_SFCRC16, align 4
  %27 = call i32 @dissect_dcerpc_uint32(ptr noundef %0, i32 noundef %21, ptr noundef %2, ptr noundef %25, ptr noundef %5, i32 noundef %26, ptr noundef nonnull %10) #11
  %28 = load i32, ptr @hf_pn_io_SFIOCRProperties_DFPRedundantPathLayout, align 4
  %29 = call i32 @dissect_dcerpc_uint32(ptr noundef %0, i32 noundef %21, ptr noundef %2, ptr noundef %25, ptr noundef %5, i32 noundef %28, ptr noundef nonnull %10) #11
  %30 = load i32, ptr @hf_pn_io_SFIOCRProperties_DFPType, align 4
  %31 = call i32 @dissect_dcerpc_uint32(ptr noundef %0, i32 noundef %21, ptr noundef %2, ptr noundef %25, ptr noundef %5, i32 noundef %30, ptr noundef nonnull %10) #11
  %32 = load i32, ptr @hf_pn_io_SFIOCRProperties_reserved_2, align 4
  %33 = call i32 @dissect_dcerpc_uint32(ptr noundef %0, i32 noundef %21, ptr noundef %2, ptr noundef %25, ptr noundef %5, i32 noundef %32, ptr noundef nonnull %10) #11
  %34 = load i32, ptr @hf_pn_io_SFIOCRProperties_reserved_1, align 4
  %35 = call i32 @dissect_dcerpc_uint32(ptr noundef %0, i32 noundef %21, ptr noundef %2, ptr noundef %25, ptr noundef %5, i32 noundef %34, ptr noundef nonnull %10) #11
  %36 = load i32, ptr @hf_pn_io_SFIOCRProperties_DFPmode, align 4
  %37 = call i32 @dissect_dcerpc_uint32(ptr noundef %0, i32 noundef %21, ptr noundef %2, ptr noundef %25, ptr noundef %5, i32 noundef %36, ptr noundef nonnull %10) #11
  %38 = load i32, ptr @hf_pn_io_RestartFactorForDistributedWD, align 4
  %39 = call i32 @dissect_dcerpc_uint32(ptr noundef %0, i32 noundef %21, ptr noundef %2, ptr noundef %25, ptr noundef %5, i32 noundef %38, ptr noundef nonnull %10) #11
  %40 = load i32, ptr @hf_pn_io_DistributedWatchDogFactor, align 4
  %41 = call i32 @dissect_dcerpc_uint32(ptr noundef %0, i32 noundef %21, ptr noundef %2, ptr noundef %25, ptr noundef %5, i32 noundef %40, ptr noundef nonnull %10) #11
  %42 = add i16 %8, -6
  %43 = icmp ugt i16 %42, 3
  br i1 %43, label %.lr.ph, label %.loopexit

.lr.ph:                                           ; preds = %19, %.lr.ph
  %.09094 = phi i32 [ %55, %.lr.ph ], [ %41, %19 ]
  %.09193 = phi i16 [ %60, %.lr.ph ], [ %42, %19 ]
  %44 = load i32, ptr @hf_pn_io_subframe_data, align 4
  %45 = call ptr @proto_tree_add_item(ptr noundef %3, i32 noundef %44, ptr noundef %0, i32 noundef %.09094, i32 noundef 4, i32 noundef 0) #11
  %46 = load i32, ptr @ett_pn_io_subframe_data, align 4
  %47 = call ptr @proto_item_add_subtree(ptr noundef %45, i32 noundef %46) #11
  %48 = load i32, ptr @hf_pn_io_subframe_data_position, align 4
  %49 = call i32 @dissect_dcerpc_uint32(ptr noundef %0, i32 noundef %.09094, ptr noundef %2, ptr noundef %47, ptr noundef %5, i32 noundef %48, ptr noundef nonnull %11) #11
  %50 = load i32, ptr @hf_pn_io_subframe_reserved1, align 4
  %51 = call i32 @dissect_dcerpc_uint32(ptr noundef %0, i32 noundef %.09094, ptr noundef %2, ptr noundef %47, ptr noundef %5, i32 noundef %50, ptr noundef nonnull %11) #11
  %52 = load i32, ptr @hf_pn_io_subframe_data_length, align 4
  %53 = call i32 @dissect_dcerpc_uint32(ptr noundef %0, i32 noundef %.09094, ptr noundef %2, ptr noundef %47, ptr noundef %5, i32 noundef %52, ptr noundef nonnull %11) #11
  %54 = load i32, ptr @hf_pn_io_subframe_reserved2, align 4
  %55 = call i32 @dissect_dcerpc_uint32(ptr noundef %0, i32 noundef %.09094, ptr noundef %2, ptr noundef %47, ptr noundef %5, i32 noundef %54, ptr noundef nonnull %11) #11
  %56 = load i32, ptr %11, align 4
  %57 = and i32 %56, 127
  %58 = lshr i32 %56, 8
  %59 = and i32 %58, 255
  call void (ptr, ptr, ...) @proto_item_append_text(ptr noundef %45, ptr noundef nonnull @.str.1572, i32 noundef %59, i32 noundef %59, i32 noundef %57) #11
  %60 = add i16 %.09193, -4
  %61 = icmp ugt i16 %60, 3
  br i1 %61, label %.lr.ph, label %.loopexit, !llvm.loop !66

.loopexit:                                        ; preds = %.lr.ph, %19, %15
  ret void
}